target datalayout = "e-m:e-p270:32:32-p271:32:32-p272:64:64-i64:64-i128:128-f80:128-n8:16:32:64-S128"
target triple = "x86_64-pc-linux-gnu"

%struct.rlimit = type { i64, i64 }

; Function Attrs: inlinehint mustprogress nounwind uwtable
define internal noundef i64 @"_ZZN17grpc_event_engine12experimental12_GLOBAL__N_119GetRLimitMemLockMaxEvENK3$_0clEv"(ptr noundef nonnull align 1 dereferenceable(1) %0) #7 align 2 {
  %2 = alloca i64, align 8
  %3 = alloca ptr, align 8
  %4 = alloca %struct.rlimit, align 8
  %5 = alloca i32, align 4
  store ptr %0, ptr %3, align 8, !tbaa !154
  %6 = call i32 (i32, ...) @prctl(i32 noundef 23, i32 noundef 24, i32 noundef 0) #3
  %7 = icmp sgt i32 %6, 0
  br i1 %7, label %8, label %9

8:                                                ; preds = %1
  store i64 -1, ptr %2, align 8
  br label %17

9:                                                ; preds = %1
  call void @llvm.lifetime.start.p0(i64 16, ptr %4) #3
  %10 = call i32 @getrlimit(i32 noundef 8, ptr noundef %4) #3
  %11 = icmp ne i32 %10, 0
  br i1 %11, label %12, label %13

12:                                               ; preds = %9
  store i64 0, ptr %2, align 8
  store i32 1, ptr %5, align 4
  br label %16

13:                                               ; preds = %9
  %14 = getelementptr inbounds nuw %struct.rlimit, ptr %4, i32 0, i32 1
  %15 = load i64, ptr %14, align 8, !tbaa !667
  store i64 %15, ptr %2, align 8
  store i32 1, ptr %5, align 4
  br label %16

16:                                               ; preds = %13, %12
  call void @llvm.lifetime.end.p0(i64 16, ptr %4) #3
  br label %17

17:                                               ; preds = %16, %8
  %18 = load i64, ptr %2, align 8
  ret i64 %18
}