; Function Attrs: inlinehint mustprogress nounwind uwtable
define internal fastcc noundef i64 @"_ZZN17grpc_event_engine12experimental12_GLOBAL__N_119GetRLimitMemLockMaxEvENK3$_0clEv"() unnamed_addr #12 align 2 {
  %1 = alloca %struct.rlimit, align 8
  %2 = tail call i32 (i32, ...) @prctl(i32 noundef 23, i32 noundef 24, i32 noundef 0) #41
  %3 = icmp sgt i32 %2, 0
  br i1 %3, label %8, label %4

4:                                                ; preds = %0
  call void @llvm.lifetime.start.p0(i64 16, ptr nonnull %1) #41
  %5 = call i32 @getrlimit(i32 noundef 8, ptr noundef nonnull %1) #41
  %.not = icmp eq i32 %5, 0
  %6 = getelementptr inbounds nuw i8, ptr %1, i64 8
  %7 = load i64, ptr %6, align 8
  %.1 = select i1 %.not, i64 %7, i64 0
  call void @llvm.lifetime.end.p0(i64 16, ptr nonnull %1) #41
  br label %8

8:                                                ; preds = %0, %4
  %.0 = phi i64 [ %.1, %4 ], [ -1, %0 ]
  ret i64 %.0
}